target datalayout = "e-m:e-p270:32:32-p271:32:32-p272:64:64-i64:64-i128:128-f80:128-n8:16:32:64-S128"
target triple = "x86_64-pc-linux-gnu"

%struct.Cache = type { ptr, i32, i32, i32, i32, i64, i64, i64, i64 }
%struct.CacheSet = type { ptr, ptr, i64, ptr }

; Function Attrs: nounwind sspstrong uwtable
define internal void @lru_priorities_destroy(ptr noundef %0) #0 {
  %2 = alloca ptr, align 8
  %3 = alloca i32, align 4
  store ptr %0, ptr %2, align 8
  call void @llvm.lifetime.start.p0(i64 4, ptr %3) #10
  store i32 0, ptr %3, align 4, !annotation !3
  store i32 0, ptr %3, align 4
  br label %4

4:                                                ; preds = %19, %1
  %5 = load i32, ptr %3, align 4
  %6 = load ptr, ptr %2, align 8
  %7 = getelementptr inbounds nuw %struct.Cache, ptr %6, i32 0, i32 1
  %8 = load i32, ptr %7, align 8
  %9 = icmp slt i32 %5, %8
  br i1 %9, label %10, label %22

10:                                               ; preds = %4
  %11 = load ptr, ptr %2, align 8
  %12 = getelementptr inbounds nuw %struct.Cache, ptr %11, i32 0, i32 0
  %13 = load ptr, ptr %12, align 8
  %14 = load i32, ptr %3, align 4
  %15 = sext i32 %14 to i64
  %16 = getelementptr inbounds %struct.CacheSet, ptr %13, i64 %15
  %17 = getelementptr inbounds nuw %struct.CacheSet, ptr %16, i32 0, i32 1
  %18 = load ptr, ptr %17, align 8
  call void @g_free(ptr noundef %18)
  br label %19

19:                                               ; preds = %10
  %20 = load i32, ptr %3, align 4
  %21 = add i32 %20, 1
  store i32 %21, ptr %3, align 4
  br label %4, !llvm.loop !11

22:                                               ; preds = %4
  call void @llvm.lifetime.end.p0(i64 4, ptr %3) #10
  ret void
}